target datalayout = "e-m:e-p270:32:32-p271:32:32-p272:64:64-i64:64-i128:128-f80:128-n8:16:32:64-S128"
target triple = "x86_64-pc-linux-gnu"

@.str.1 = private unnamed_addr constant [2 x i8] c"\0A\00", align 1
@.str.7 = private unnamed_addr constant [7 x i8] c"stdout\00", align 1

; Function Attrs: mustprogress uwtable
define void @_ZN8nanobind6detail5printEP7_objectS2_S2_(ptr noundef %0, ptr noundef %1, ptr noundef %2) #12 {
  %4 = alloca ptr, align 8
  %5 = alloca ptr, align 8
  %6 = alloca ptr, align 8
  %7 = alloca i32, align 4
  store ptr %0, ptr %4, align 8
  store ptr %1, ptr %5, align 8
  store ptr %2, ptr %6, align 8
  %8 = load ptr, ptr %6, align 8
  %9 = icmp ne ptr %8, null
  br i1 %9, label %12, label %10

10:                                               ; preds = %3
  %11 = call ptr @PySys_GetObject(ptr noundef @.str.7)
  store ptr %11, ptr %6, align 8
  br label %12

12:                                               ; preds = %10, %3
  call void @llvm.lifetime.start.p0(i64 4, ptr %7) #20
  %13 = load ptr, ptr %4, align 8
  %14 = load ptr, ptr %6, align 8
  %15 = call i32 @PyFile_WriteObject(ptr noundef %13, ptr noundef %14, i32 noundef 1)
  store i32 %15, ptr %7, align 4
  %16 = load i32, ptr %7, align 4
  %17 = icmp ne i32 %16, 0
  br i1 %17, label %18, label %19

18:                                               ; preds = %12
  call void @_ZN8nanobind6detail18raise_python_errorEv() #21
  unreachable

19:                                               ; preds = %12
  %20 = load ptr, ptr %5, align 8
  %21 = icmp ne ptr %20, null
  br i1 %21, label %22, label %26

22:                                               ; preds = %19
  %23 = load ptr, ptr %5, align 8
  %24 = load ptr, ptr %6, align 8
  %25 = call i32 @PyFile_WriteObject(ptr noundef %23, ptr noundef %24, i32 noundef 1)
  store i32 %25, ptr %7, align 4
  br label %29

26:                                               ; preds = %19
  %27 = load ptr, ptr %6, align 8
  %28 = call i32 @PyFile_WriteString(ptr noundef @.str.1, ptr noundef %27)
  store i32 %28, ptr %7, align 4
  br label %29

29:                                               ; preds = %26, %22
  %30 = load i32, ptr %7, align 4
  %31 = icmp ne i32 %30, 0
  br i1 %31, label %32, label %33

32:                                               ; preds = %29
  call void @_ZN8nanobind6detail18raise_python_errorEv() #21
  unreachable

33:                                               ; preds = %29
  call void @llvm.lifetime.end.p0(i64 4, ptr %7) #20
  ret void
}