; Function Attrs: mustprogress uwtable
define void @_ZN8nanobind6detail5printEP7_objectS2_S2_(ptr noundef %0, ptr noundef %1, ptr noundef %2) local_unnamed_addr #15 {
  %.not = icmp eq ptr %2, null
  br i1 %.not, label %4, label %6

4:                                                ; preds = %3
  %5 = tail call ptr @PySys_GetObject(ptr noundef nonnull @.str.7)
  br label %6

6:                                                ; preds = %4, %3
  %.08 = phi ptr [ %2, %3 ], [ %5, %4 ]
  %7 = tail call i32 @PyFile_WriteObject(ptr noundef %0, ptr noundef %.08, i32 noundef 1)
  %.not11 = icmp eq i32 %7, 0
  br i1 %.not11, label %9, label %8

8:                                                ; preds = %6
  tail call void @_ZN8nanobind6detail18raise_python_errorEv() #28
  unreachable

9:                                                ; preds = %6
  %.not12 = icmp eq ptr %1, null
  br i1 %.not12, label %12, label %10

10:                                               ; preds = %9
  %11 = tail call i32 @PyFile_WriteObject(ptr noundef nonnull %1, ptr noundef %.08, i32 noundef 1)
  br label %14

12:                                               ; preds = %9
  %13 = tail call i32 @PyFile_WriteString(ptr noundef nonnull @.str.1, ptr noundef %.08)
  br label %14

14:                                               ; preds = %12, %10
  %.0 = phi i32 [ %11, %10 ], [ %13, %12 ]
  %.not13 = icmp eq i32 %.0, 0
  br i1 %.not13, label %16, label %15

15:                                               ; preds = %14
  tail call void @_ZN8nanobind6detail18raise_python_errorEv() #28
  unreachable

16:                                               ; preds = %14
  ret void
}